; Function Attrs: mustprogress uwtable
define void @_ZN6google8protobuf8internal24InitProtobufDefaultsSlowEv() local_unnamed_addr #4 personality ptr @__gxx_personality_v0 {
  %1 = load atomic i8, ptr @_ZGVZN6google8protobuf8internal24InitProtobufDefaultsSlowEvE9is_inited acquire, align 8
  %2 = icmp eq i8 %1, 0
  br i1 %2, label %3, label %7, !prof !15

3:                                                ; preds = %0
  %4 = tail call i32 @__cxa_guard_acquire(ptr nonnull @_ZGVZN6google8protobuf8internal24InitProtobufDefaultsSlowEvE9is_inited) #17
  %.not = icmp eq i32 %4, 0
  br i1 %.not, label %7, label %5

5:                                                ; preds = %3
  store ptr getelementptr inbounds nuw (i8, ptr @_ZN6google8protobuf8internal26fixed_address_empty_stringE, i64 16), ptr @_ZN6google8protobuf8internal26fixed_address_empty_stringE, align 8, !tbaa !16
  store i64 0, ptr getelementptr inbounds nuw (i8, ptr @_ZN6google8protobuf8internal26fixed_address_empty_stringE, i64 8), align 8, !tbaa !13
  store i8 0, ptr getelementptr inbounds nuw (i8, ptr @_ZN6google8protobuf8internal26fixed_address_empty_stringE, i64 16), align 8, !tbaa !14
  invoke void @_ZN6google8protobuf8internal13OnShutdownRunEPFvPKvES3_(ptr noundef nonnull @_ZN6google8protobuf8internal13DestroyStringEPKv, ptr noundef nonnull @_ZN6google8protobuf8internal26fixed_address_empty_stringE)
          to label %6 unwind label %8

6:                                                ; preds = %5
  store atomic i8 1, ptr @_ZN6google8protobuf8internal28init_protobuf_defaults_stateE release, align 1
  tail call void @__cxa_guard_release(ptr nonnull @_ZGVZN6google8protobuf8internal24InitProtobufDefaultsSlowEvE9is_inited) #17
  br label %7

7:                                                ; preds = %6, %3, %0
  ret void

8:                                                ; preds = %5
  %9 = landingpad { ptr, i32 }
          cleanup
  tail call void @__cxa_guard_abort(ptr nonnull @_ZGVZN6google8protobuf8internal24InitProtobufDefaultsSlowEvE9is_inited) #17
  resume { ptr, i32 } %9
}